; Function Attrs: alwaysinline norecurse nounwind ssp uwtable
define internal void @"_ZN6open3d4core15ParallelForCPU_IZZZNS0_8TriulCPUERKNS0_6TensorERS2_S5_iENK3$_0clEvENKUlvE7_clEvEUllE_EEvRKNS0_6DeviceElRKT_.omp_outlined"(ptr noalias noundef readonly captures(none) %0, ptr noalias readnone captures(none) %1, ptr noundef nonnull readonly align 8 captures(none) dereferenceable(8) %2, ptr noundef nonnull readonly align 8 captures(none) dereferenceable(40) %3) #9 personality ptr @__gxx_personality_v0 {
  %5 = alloca i64, align 8
  %6 = alloca i64, align 8
  %7 = alloca i64, align 8
  %8 = alloca i32, align 4
  %9 = load i64, ptr %2, align 8, !tbaa !11
  %10 = icmp sgt i64 %9, 0
  br i1 %10, label %11, label %47

11:                                               ; preds = %4
  %12 = add nsw i64 %9, -1
  call void @llvm.lifetime.start.p0(i64 8, ptr nonnull %5) #10
  store i64 0, ptr %5, align 8, !tbaa !11
  call void @llvm.lifetime.start.p0(i64 8, ptr nonnull %6) #10
  store i64 %12, ptr %6, align 8, !tbaa !11
  call void @llvm.lifetime.start.p0(i64 8, ptr nonnull %7) #10
  store i64 1, ptr %7, align 8, !tbaa !11
  call void @llvm.lifetime.start.p0(i64 4, ptr nonnull %8) #10
  store i32 0, ptr %8, align 4, !tbaa !4
  %13 = load i32, ptr %0, align 4, !tbaa !4
  call void @__kmpc_for_static_init_8(ptr nonnull @1, i32 %13, i32 34, ptr nonnull %8, ptr nonnull %5, ptr nonnull %6, ptr nonnull %7, i64 1, i64 1)
  %14 = load i64, ptr %6, align 8, !tbaa !11
  %15 = call i64 @llvm.smin.i64(i64 %14, i64 %12)
  store i64 %15, ptr %6, align 8, !tbaa !11
  %16 = load i64, ptr %5, align 8, !tbaa !11
  %.not13 = icmp sgt i64 %16, %15
  br i1 %.not13, label %._crit_edge, label %.lr.ph

.lr.ph:                                           ; preds = %11
  %17 = load ptr, ptr %3, align 8, !tbaa !813
  %18 = getelementptr inbounds nuw i8, ptr %3, i64 8
  %19 = load ptr, ptr %18, align 8, !tbaa !815
  %20 = getelementptr inbounds nuw i8, ptr %3, i64 16
  %21 = load ptr, ptr %20, align 8
  %.sink23.in.in.i = getelementptr inbounds nuw i8, ptr %3, i64 24
  %.sink23.in.i = load ptr, ptr %.sink23.in.in.i, align 8, !tbaa !816
  %.sink23.i = load ptr, ptr %.sink23.in.i, align 8, !tbaa !36
  br label %22

22:                                               ; preds = %.lr.ph, %"_ZZZZN6open3d4core8TriulCPUERKNS0_6TensorERS1_S4_iENK3$_0clEvENKUlvE7_clEvENKUllE_clEl.exit"
  %.014 = phi i64 [ %16, %.lr.ph ], [ %46, %"_ZZZZN6open3d4core8TriulCPUERKNS0_6TensorERS1_S4_iENK3$_0clEvENKUlvE7_clEvENKUllE_clEl.exit" ]
  %23 = load i32, ptr %17, align 4, !tbaa !4
  %24 = sext i32 %23 to i64
  %25 = sdiv i64 %.014, %24
  %26 = srem i64 %.014, %24
  %27 = sub nsw i64 %26, %25
  %28 = load i32, ptr %19, align 4, !tbaa !4
  %29 = sext i32 %28 to i64
  %30 = icmp slt i64 %27, %29
  br i1 %30, label %"_ZZZZN6open3d4core8TriulCPUERKNS0_6TensorERS1_S4_iENK3$_0clEvENKUlvE7_clEvENKUllE_clEl.exit", label %31

31:                                               ; preds = %22
  %32 = icmp sgt i64 %27, %29
  br i1 %32, label %"_ZZZZN6open3d4core8TriulCPUERKNS0_6TensorERS1_S4_iENK3$_0clEvENKUlvE7_clEvENKUllE_clEl.exit", label %33

33:                                               ; preds = %31
  %34 = load ptr, ptr %21, align 8, !tbaa !36
  %35 = getelementptr inbounds i32, ptr %34, i64 %.014
  store i32 1, ptr %35, align 4, !tbaa !4
  %36 = load i32, ptr %17, align 4, !tbaa !4
  %37 = sext i32 %36 to i64
  br label %"_ZZZZN6open3d4core8TriulCPUERKNS0_6TensorERS1_S4_iENK3$_0clEvENKUlvE7_clEvENKUllE_clEl.exit"

"_ZZZZN6open3d4core8TriulCPUERKNS0_6TensorERS1_S4_iENK3$_0clEvENKUlvE7_clEvENKUllE_clEl.exit": ; preds = %31, %22, %33
  %.sink.i = phi i64 [ %37, %33 ], [ %24, %22 ], [ %24, %31 ]
  %.sink21.i = phi i64 [ 32, %33 ], [ 16, %22 ], [ 32, %31 ]
  %38 = mul nsw i64 %.sink.i, %25
  %39 = getelementptr i32, ptr %.sink23.i, i64 %38
  %40 = getelementptr i32, ptr %39, i64 %26
  %41 = load i32, ptr %40, align 4, !tbaa !4
  %42 = getelementptr inbounds nuw i8, ptr %3, i64 %.sink21.i
  %43 = load ptr, ptr %42, align 8, !tbaa !57
  %44 = load ptr, ptr %43, align 8, !tbaa !36
  %45 = getelementptr inbounds i32, ptr %44, i64 %.014
  store i32 %41, ptr %45, align 4, !tbaa !4
  %46 = add i64 %.014, 1
  %exitcond.not = icmp eq i64 %.014, %15
  br i1 %exitcond.not, label %._crit_edge, label %22

._crit_edge:                                      ; preds = %"_ZZZZN6open3d4core8TriulCPUERKNS0_6TensorERS1_S4_iENK3$_0clEvENKUlvE7_clEvENKUllE_clEl.exit", %11
  call void @__kmpc_for_static_fini(ptr nonnull @1, i32 %13)
  call void @llvm.lifetime.end.p0(i64 4, ptr nonnull %8) #10
  call void @llvm.lifetime.end.p0(i64 8, ptr nonnull %7) #10
  call void @llvm.lifetime.end.p0(i64 8, ptr nonnull %6) #10
  call void @llvm.lifetime.end.p0(i64 8, ptr nonnull %5) #10
  br label %47

47:                                               ; preds = %._crit_edge, %4
  ret void
}